; Function Attrs: mustprogress uwtable
define void @_ZNK2cv3SVD9backSubstERKNS_11_InputArrayERKNS_12_OutputArrayE(ptr noundef nonnull align 8 dereferenceable(288) %0, ptr noundef nonnull align 8 dereferenceable(24) %1, ptr noundef nonnull align 8 dereferenceable(24) %2) local_unnamed_addr #0 align 2 personality ptr @__gxx_personality_v0 {
  %4 = alloca %"class.cv::_InputArray", align 8
  %5 = alloca %"class.cv::_InputArray", align 8
  %6 = alloca %"class.cv::_InputArray", align 8
  call void @llvm.lifetime.start.p0(i64 24, ptr nonnull %4) #17
  %7 = getelementptr inbounds nuw i8, ptr %0, i64 96
  %8 = getelementptr inbounds nuw i8, ptr %4, i64 16
  store i32 0, ptr %8, align 8, !tbaa !103
  %9 = getelementptr inbounds nuw i8, ptr %4, i64 20
  store i32 0, ptr %9, align 4, !tbaa !104
  store i32 16842752, ptr %4, align 8, !tbaa !96
  %10 = getelementptr inbounds nuw i8, ptr %4, i64 8
  store ptr %7, ptr %10, align 8, !tbaa !70
  call void @llvm.lifetime.start.p0(i64 24, ptr nonnull %5) #17
  %11 = getelementptr inbounds nuw i8, ptr %5, i64 16
  store i32 0, ptr %11, align 8, !tbaa !103
  %12 = getelementptr inbounds nuw i8, ptr %5, i64 20
  store i32 0, ptr %12, align 4, !tbaa !104
  store i32 16842752, ptr %5, align 8, !tbaa !96
  %13 = getelementptr inbounds nuw i8, ptr %5, i64 8
  store ptr %0, ptr %13, align 8, !tbaa !70
  call void @llvm.lifetime.start.p0(i64 24, ptr nonnull %6) #17
  %14 = getelementptr inbounds nuw i8, ptr %0, i64 192
  %15 = getelementptr inbounds nuw i8, ptr %6, i64 16
  store i32 0, ptr %15, align 8, !tbaa !103
  %16 = getelementptr inbounds nuw i8, ptr %6, i64 20
  store i32 0, ptr %16, align 4, !tbaa !104
  store i32 16842752, ptr %6, align 8, !tbaa !96
  %17 = getelementptr inbounds nuw i8, ptr %6, i64 8
  store ptr %14, ptr %17, align 8, !tbaa !70
  call void @_ZN2cv3SVD9backSubstERKNS_11_InputArrayES3_S3_S3_RKNS_12_OutputArrayE(ptr noundef nonnull align 8 dereferenceable(24) %4, ptr noundef nonnull align 8 dereferenceable(24) %5, ptr noundef nonnull align 8 dereferenceable(24) %6, ptr noundef nonnull align 8 dereferenceable(24) %1, ptr noundef nonnull align 8 dereferenceable(24) %2)
  call void @llvm.lifetime.end.p0(i64 24, ptr nonnull %6) #17
  call void @llvm.lifetime.end.p0(i64 24, ptr nonnull %5) #17
  call void @llvm.lifetime.end.p0(i64 24, ptr nonnull %4) #17
  ret void
}